; Function Attrs: nounwind uwtable
define range(i32 -21, 1) i32 @CVodeGetNonlinearSystemData(ptr noundef readonly captures(address_is_null) %0, ptr noundef writeonly captures(none) %1, ptr noundef writeonly captures(none) %2, ptr noundef writeonly captures(none) %3, ptr noundef writeonly captures(none) %4, ptr noundef writeonly captures(none) %5, ptr noundef writeonly captures(none) %6, ptr noundef writeonly captures(none) %7, ptr noundef writeonly captures(none) %8) local_unnamed_addr #0 {
  %10 = icmp eq ptr %0, null
  br i1 %10, label %11, label %12

11:                                               ; preds = %9
  tail call void (ptr, i32, i32, ptr, ptr, ptr, ...) @cvProcessError(ptr noundef null, i32 noundef -21, i32 noundef 186, ptr noundef nonnull @__func__.CVodeGetNonlinearSystemData, ptr noundef nonnull @.str, ptr noundef nonnull @.str.1) #3
  br label %29

12:                                               ; preds = %9
  %13 = getelementptr inbounds nuw i8, ptr %0, i64 360
  %14 = load double, ptr %13, align 8, !tbaa !30
  store double %14, ptr %1, align 8, !tbaa !41
  %15 = getelementptr inbounds nuw i8, ptr %0, i64 96
  %16 = load ptr, ptr %15, align 8, !tbaa !28
  store ptr %16, ptr %2, align 8, !tbaa !28
  %17 = getelementptr inbounds nuw i8, ptr %0, i64 208
  %18 = load ptr, ptr %17, align 8, !tbaa !29
  store ptr %18, ptr %3, align 8, !tbaa !28
  %19 = getelementptr inbounds nuw i8, ptr %0, i64 232
  %20 = load ptr, ptr %19, align 8, !tbaa !31
  store ptr %20, ptr %4, align 8, !tbaa !28
  %21 = getelementptr inbounds nuw i8, ptr %0, i64 648
  %22 = load double, ptr %21, align 8, !tbaa !35
  store double %22, ptr %5, align 8, !tbaa !41
  %23 = getelementptr inbounds nuw i8, ptr %0, i64 640
  %24 = load double, ptr %23, align 8, !tbaa !34
  store double %24, ptr %6, align 8, !tbaa !41
  %25 = getelementptr inbounds nuw i8, ptr %0, i64 104
  %26 = load ptr, ptr %25, align 8, !tbaa !28
  store ptr %26, ptr %7, align 8, !tbaa !28
  %27 = getelementptr inbounds nuw i8, ptr %0, i64 24
  %28 = load ptr, ptr %27, align 8, !tbaa !32
  store ptr %28, ptr %8, align 8, !tbaa !42
  br label %29

29:                                               ; preds = %12, %11
  %.0 = phi i32 [ -21, %11 ], [ 0, %12 ]
  ret i32 %.0
}